; Function Attrs: mustprogress nounwind uwtable
define noundef nonnull align 8 dereferenceable(20) ptr @_ZN4pkpy7SStreamlsERKNSt7__cxx1112basic_stringIcSt11char_traitsIcESaIcEEE(ptr noundef nonnull returned align 8 dereferenceable(20) %0, ptr noundef nonnull align 8 dereferenceable(32) %1) local_unnamed_addr #4 align 2 {
  %3 = tail call noundef ptr @_ZNKSt7__cxx1112basic_stringIcSt11char_traitsIcESaIcEE4dataEv(ptr noundef nonnull align 8 dereferenceable(32) %1) #23
  %4 = tail call noundef ptr @_ZNKSt7__cxx1112basic_stringIcSt11char_traitsIcESaIcEE4dataEv(ptr noundef nonnull align 8 dereferenceable(32) %1) #23
  %5 = tail call noundef i64 @_ZNKSt7__cxx1112basic_stringIcSt11char_traitsIcESaIcEE4sizeEv(ptr noundef nonnull align 8 dereferenceable(32) %1) #23
  %6 = getelementptr inbounds i8, ptr %4, i64 %5
  %.not6.i = icmp eq ptr %3, %6
  br i1 %.not6.i, label %_ZN4pkpy10pod_vectorIcLi2EE6extendEPKcS3_.exit, label %.lr.ph.i

.lr.ph.i:                                         ; preds = %2
  %7 = getelementptr inbounds i8, ptr %0, i64 4
  %8 = getelementptr inbounds i8, ptr %0, i64 8
  br label %9

9:                                                ; preds = %_ZN4pkpy10pod_vectorIcLi2EE9push_backIRKcEEvOT_.exit.i, %.lr.ph.i
  %.07.i = phi ptr [ %3, %.lr.ph.i ], [ %27, %_ZN4pkpy10pod_vectorIcLi2EE9push_backIRKcEEvOT_.exit.i ]
  %10 = load i32, ptr %0, align 8
  %11 = load i32, ptr %7, align 4
  %12 = icmp eq i32 %10, %11
  br i1 %12, label %13, label %_ZN4pkpy10pod_vectorIcLi2EE9push_backIRKcEEvOT_.exit.i

13:                                               ; preds = %9
  %14 = shl nsw i32 %10, 1
  %.not.i.i.i = icmp slt i32 %10, %14
  br i1 %.not.i.i.i, label %15, label %_ZN4pkpy10pod_vectorIcLi2EE9push_backIRKcEEvOT_.exit.i

15:                                               ; preds = %13
  store i32 %14, ptr %7, align 4
  %16 = load ptr, ptr %8, align 8
  %17 = sext i32 %14 to i64
  %18 = tail call noundef ptr @_ZN4pkpy12pool64_allocEm(i64 noundef %17) #23
  store ptr %18, ptr %8, align 8
  %.not6.i.i.i = icmp eq ptr %16, null
  %.pre2.i.i = load i32, ptr %0, align 8
  br i1 %.not6.i.i.i, label %_ZN4pkpy10pod_vectorIcLi2EE9push_backIRKcEEvOT_.exit.i, label %19

19:                                               ; preds = %15
  %20 = sext i32 %.pre2.i.i to i64
  tail call void @llvm.memcpy.p0.p0.i64(ptr align 1 %18, ptr nonnull align 1 %16, i64 %20, i1 false)
  tail call void @_ZN4pkpy14pool64_deallocEPv(ptr noundef nonnull %16) #23
  %.pre.i.i = load i32, ptr %0, align 8
  br label %_ZN4pkpy10pod_vectorIcLi2EE9push_backIRKcEEvOT_.exit.i

_ZN4pkpy10pod_vectorIcLi2EE9push_backIRKcEEvOT_.exit.i: ; preds = %19, %15, %13, %9
  %21 = phi i32 [ %.pre.i.i, %19 ], [ %.pre2.i.i, %15 ], [ %10, %13 ], [ %10, %9 ]
  %22 = load i8, ptr %.07.i, align 1
  %23 = load ptr, ptr %8, align 8
  %24 = add nsw i32 %21, 1
  store i32 %24, ptr %0, align 8
  %25 = sext i32 %21 to i64
  %26 = getelementptr inbounds i8, ptr %23, i64 %25
  store i8 %22, ptr %26, align 1
  %27 = getelementptr inbounds i8, ptr %.07.i, i64 1
  %.not.i = icmp eq ptr %27, %6
  br i1 %.not.i, label %_ZN4pkpy10pod_vectorIcLi2EE6extendEPKcS3_.exit, label %9, !llvm.loop !51

_ZN4pkpy10pod_vectorIcLi2EE6extendEPKcS3_.exit:   ; preds = %_ZN4pkpy10pod_vectorIcLi2EE9push_backIRKcEEvOT_.exit.i, %2
  ret ptr %0
}